target datalayout = "e-m:e-p270:32:32-p271:32:32-p272:64:64-i64:64-i128:128-f80:128-n8:16:32:64-S128"
target triple = "x86_64-pc-linux-gnu"

%struct._packet_info = type { ptr, ptr, i32, i32, %struct.nstime_t, %struct.nstime_t, %struct.nstime_t, i8, ptr, ptr, ptr, ptr, %struct._address, %struct._address, %struct._address, %struct._address, %struct._address, %struct._address, i32, ptr, i8, [3 x i8], %struct.anon, i32, i32, i32, i32, ptr, i8, ptr, ptr, i16, i16, i32, i32, i16, i32, i32, ptr, ptr, ptr, i8, i8, i16, i16, i16, i32, i16, i16, ptr, ptr, ptr, ptr, ptr, i32, i32 }
%struct.nstime_t = type { i64, i32 }
%struct._address = type { i32, i32, ptr, ptr }
%struct.anon = type { i8, [3 x i8] }

@ett_u3v_stream_payload = internal global i32 0, align 4
@hf_u3v_stream_data = internal global i32 0, align 4
@hf_u3v_stream_payload = internal global i32 0, align 4
@.str.689 = private unnamed_addr constant [15 x i8] c"Stream Payload\00", align 1

; Function Attrs: null_pointer_is_valid sspstrong uwtable
define internal void @dissect_u3v_stream_payload(ptr noundef %0, ptr noundef %1, ptr noundef %2, ptr noundef %3) #0 {
  %5 = alloca ptr, align 8
  %6 = alloca ptr, align 8
  %7 = alloca ptr, align 8
  %8 = alloca ptr, align 8
  %9 = alloca ptr, align 8
  store ptr %0, ptr %5, align 8
  store ptr %1, ptr %6, align 8
  store ptr %2, ptr %7, align 8
  store ptr %3, ptr %8, align 8
  call void @llvm.lifetime.start.p0(i64 8, ptr %9) #6
  store ptr null, ptr %9, align 8
  %10 = load ptr, ptr %5, align 8
  %11 = load i32, ptr @hf_u3v_stream_payload, align 4
  %12 = load ptr, ptr %6, align 8
  %13 = call ptr @proto_tree_add_item(ptr noundef %10, i32 noundef %11, ptr noundef %12, i32 noundef 0, i32 noundef -1, i32 noundef 0)
  store ptr %13, ptr %9, align 8
  %14 = load ptr, ptr %9, align 8
  %15 = load i32, ptr @ett_u3v_stream_payload, align 4
  %16 = call ptr @proto_item_add_subtree(ptr noundef %14, i32 noundef %15)
  store ptr %16, ptr %5, align 8
  %17 = load ptr, ptr %5, align 8
  %18 = load i32, ptr @hf_u3v_stream_data, align 4
  %19 = load ptr, ptr %6, align 8
  %20 = call ptr @proto_tree_add_item(ptr noundef %17, i32 noundef %18, ptr noundef %19, i32 noundef 0, i32 noundef -1, i32 noundef 0)
  %21 = load ptr, ptr %7, align 8
  %22 = getelementptr inbounds nuw %struct._packet_info, ptr %21, i32 0, i32 1
  %23 = load ptr, ptr %22, align 8
  call void @col_append_str(ptr noundef %23, i32 noundef 25, ptr noundef @.str.689)
  call void @llvm.lifetime.end.p0(i64 8, ptr %9) #6
  ret void
}