; Function Attrs: null_pointer_is_valid sspstrong uwtable
define internal fastcc void @dissect_u3v_stream_payload(ptr noundef %0, ptr noundef %1, ptr noundef readonly captures(none) %2) unnamed_addr #0 {
  %4 = load i32, ptr @hf_u3v_stream_payload, align 4
  %5 = tail call ptr @proto_tree_add_item(ptr noundef %0, i32 noundef %4, ptr noundef %1, i32 noundef 0, i32 noundef -1, i32 noundef 0)
  %6 = load i32, ptr @ett_u3v_stream_payload, align 4
  %7 = tail call ptr @proto_item_add_subtree(ptr noundef %5, i32 noundef %6)
  %8 = load i32, ptr @hf_u3v_stream_data, align 4
  %9 = tail call ptr @proto_tree_add_item(ptr noundef %7, i32 noundef %8, ptr noundef %1, i32 noundef 0, i32 noundef -1, i32 noundef 0)
  %10 = getelementptr inbounds nuw i8, ptr %2, i64 8
  %11 = load ptr, ptr %10, align 8
  tail call void @col_append_str(ptr noundef %11, i32 noundef 25, ptr noundef nonnull @.str.689)
  ret void
}